target datalayout = "e-m:e-p270:32:32-p271:32:32-p272:64:64-i64:64-i128:128-f80:128-n8:16:32:64-S128"
target triple = "x86_64-pc-linux-gnu"

%struct.llama_sampler = type { ptr, ptr }
%"class.std::mersenne_twister_engine" = type { [624 x i64], i64 }
%struct.llama_sampler_mirostat_v2 = type { i32, i32, float, float, float, %"class.std::mersenne_twister_engine" }

; Function Attrs: mustprogress nounwind uwtable
define linkonce_odr noundef i64 @_ZNSt8__detail4_ModImLm624ELm1ELm0ELb1ELb1EE6__calcEm(i64 noundef %0) #6 comdat align 2 {
  %2 = alloca i64, align 8
  %3 = alloca i64, align 8
  store i64 %0, ptr %2, align 8, !tbaa !51
  call void @llvm.lifetime.start.p0(i64 8, ptr %3) #14
  %4 = load i64, ptr %2, align 8, !tbaa !51
  %5 = mul i64 1, %4
  %6 = add i64 %5, 0
  store i64 %6, ptr %3, align 8, !tbaa !51
  %7 = load i64, ptr %3, align 8, !tbaa !51
  %8 = urem i64 %7, 624
  store i64 %8, ptr %3, align 8, !tbaa !51
  %9 = load i64, ptr %3, align 8, !tbaa !51
  call void @llvm.lifetime.end.p0(i64 8, ptr %3) #14
  ret i64 %9
}

; Function Attrs: mustprogress nounwind uwtable
define linkonce_odr noundef i64 @_ZNSt8__detail4_ModImLm4294967296ELm1ELm0ELb1ELb1EE6__calcEm(i64 noundef %0) #6 comdat align 2 {
  %2 = alloca i64, align 8
  %3 = alloca i64, align 8
  store i64 %0, ptr %2, align 8, !tbaa !51
  call void @llvm.lifetime.start.p0(i64 8, ptr %3) #14
  %4 = load i64, ptr %2, align 8, !tbaa !51
  %5 = mul i64 1, %4
  %6 = add i64 %5, 0
  store i64 %6, ptr %3, align 8, !tbaa !51
  %7 = load i64, ptr %3, align 8, !tbaa !51
  %8 = urem i64 %7, 4294967296
  store i64 %8, ptr %3, align 8, !tbaa !51
  %9 = load i64, ptr %3, align 8, !tbaa !51
  call void @llvm.lifetime.end.p0(i64 8, ptr %3) #14
  ret i64 %9
}

; Function Attrs: inlinehint mustprogress uwtable
define linkonce_odr noundef i64 @_ZNSt8__detail5__modImTnT_Lm624ETnS1_Lm1ETnS1_Lm0EEES1_S1_(i64 noundef %0) #12 comdat {
  %2 = alloca i64, align 8
  %3 = alloca i64, align 8
  store i64 %0, ptr %2, align 8, !tbaa !51
  call void @llvm.lifetime.start.p0(i64 8, ptr %3) #14
  store i64 1, ptr %3, align 8, !tbaa !51
  %4 = load i64, ptr %2, align 8, !tbaa !51
  %5 = call noundef i64 @_ZNSt8__detail4_ModImLm624ELm1ELm0ELb1ELb1EE6__calcEm(i64 noundef %4)
  call void @llvm.lifetime.end.p0(i64 8, ptr %3) #14
  ret i64 %5
}

; Function Attrs: inlinehint mustprogress uwtable
define linkonce_odr noundef i64 @_ZNSt8__detail5__modImTnT_Lm4294967296ETnS1_Lm1ETnS1_Lm0EEES1_S1_(i64 noundef %0) #12 comdat {
  %2 = alloca i64, align 8
  %3 = alloca i64, align 8
  store i64 %0, ptr %2, align 8, !tbaa !51
  call void @llvm.lifetime.start.p0(i64 8, ptr %3) #14
  store i64 1, ptr %3, align 8, !tbaa !51
  %4 = load i64, ptr %2, align 8, !tbaa !51
  %5 = call noundef i64 @_ZNSt8__detail4_ModImLm4294967296ELm1ELm0ELb1ELb1EE6__calcEm(i64 noundef %4)
  call void @llvm.lifetime.end.p0(i64 8, ptr %3) #14
  ret i64 %5
}

; Function Attrs: mustprogress uwtable
define linkonce_odr void @_ZNSt23mersenne_twister_engineImLm32ELm624ELm397ELm31ELm2567483615ELm11ELm4294967295ELm7ELm2636928640ELm15ELm4022730752ELm18ELm1812433253EE4seedEm(ptr noundef nonnull align 8 dereferenceable(5000) %0, i64 noundef %1) #0 comdat align 2 {
  %3 = alloca ptr, align 8
  %4 = alloca i64, align 8
  %5 = alloca i64, align 8
  %6 = alloca i64, align 8
  store ptr %0, ptr %3, align 8, !tbaa !92
  store i64 %1, ptr %4, align 8, !tbaa !51
  %7 = load ptr, ptr %3, align 8
  %8 = load i64, ptr %4, align 8, !tbaa !51
  %9 = call noundef i64 @_ZNSt8__detail5__modImTnT_Lm4294967296ETnS1_Lm1ETnS1_Lm0EEES1_S1_(i64 noundef %8)
  %10 = getelementptr inbounds nuw %"class.std::mersenne_twister_engine", ptr %7, i32 0, i32 0
  %11 = getelementptr inbounds [624 x i64], ptr %10, i64 0, i64 0
  store i64 %9, ptr %11, align 8, !tbaa !51
  call void @llvm.lifetime.start.p0(i64 8, ptr %5) #14
  store i64 1, ptr %5, align 8, !tbaa !51
  br label %12

12:                                               ; preds = %37, %2
  %13 = load i64, ptr %5, align 8, !tbaa !51
  %14 = icmp ult i64 %13, 624
  br i1 %14, label %16, label %15

15:                                               ; preds = %12
  call void @llvm.lifetime.end.p0(i64 8, ptr %5) #14
  br label %40

16:                                               ; preds = %12
  call void @llvm.lifetime.start.p0(i64 8, ptr %6) #14
  %17 = getelementptr inbounds nuw %"class.std::mersenne_twister_engine", ptr %7, i32 0, i32 0
  %18 = load i64, ptr %5, align 8, !tbaa !51
  %19 = sub i64 %18, 1
  %20 = getelementptr inbounds nuw [624 x i64], ptr %17, i64 0, i64 %19
  %21 = load i64, ptr %20, align 8, !tbaa !51
  store i64 %21, ptr %6, align 8, !tbaa !51
  %22 = load i64, ptr %6, align 8, !tbaa !51
  %23 = lshr i64 %22, 30
  %24 = load i64, ptr %6, align 8, !tbaa !51
  %25 = xor i64 %24, %23
  store i64 %25, ptr %6, align 8, !tbaa !51
  %26 = load i64, ptr %6, align 8, !tbaa !51
  %27 = mul i64 %26, 1812433253
  store i64 %27, ptr %6, align 8, !tbaa !51
  %28 = load i64, ptr %5, align 8, !tbaa !51
  %29 = call noundef i64 @_ZNSt8__detail5__modImTnT_Lm624ETnS1_Lm1ETnS1_Lm0EEES1_S1_(i64 noundef %28)
  %30 = load i64, ptr %6, align 8, !tbaa !51
  %31 = add i64 %30, %29
  store i64 %31, ptr %6, align 8, !tbaa !51
  %32 = load i64, ptr %6, align 8, !tbaa !51
  %33 = call noundef i64 @_ZNSt8__detail5__modImTnT_Lm4294967296ETnS1_Lm1ETnS1_Lm0EEES1_S1_(i64 noundef %32)
  %34 = getelementptr inbounds nuw %"class.std::mersenne_twister_engine", ptr %7, i32 0, i32 0
  %35 = load i64, ptr %5, align 8, !tbaa !51
  %36 = getelementptr inbounds nuw [624 x i64], ptr %34, i64 0, i64 %35
  store i64 %33, ptr %36, align 8, !tbaa !51
  call void @llvm.lifetime.end.p0(i64 8, ptr %6) #14
  br label %37

37:                                               ; preds = %16
  %38 = load i64, ptr %5, align 8, !tbaa !51
  %39 = add i64 %38, 1
  store i64 %39, ptr %5, align 8, !tbaa !51
  br label %12, !llvm.loop !368

40:                                               ; preds = %15
  %41 = getelementptr inbounds nuw %"class.std::mersenne_twister_engine", ptr %7, i32 0, i32 1
  store i64 624, ptr %41, align 8, !tbaa !360
  ret void
}

; Function Attrs: mustprogress uwtable
define ptr @llama_sampler_init(ptr noundef %0, ptr noundef %1) #0 {
  %3 = alloca ptr, align 8
  %4 = alloca ptr, align 8
  store ptr %0, ptr %3, align 8, !tbaa !3
  store ptr %1, ptr %4, align 8, !tbaa !8
  %5 = call noalias noundef nonnull ptr @_Znwm(i64 noundef 16) #19
  %6 = getelementptr inbounds nuw %struct.llama_sampler, ptr %5, i32 0, i32 0
  %7 = load ptr, ptr %3, align 8, !tbaa !3
  store ptr %7, ptr %6, align 16, !tbaa !9
  %8 = getelementptr inbounds nuw %struct.llama_sampler, ptr %5, i32 0, i32 1
  %9 = load ptr, ptr %4, align 8, !tbaa !8
  store ptr %9, ptr %8, align 8, !tbaa !11
  ret ptr %5
}

; Function Attrs: mustprogress uwtable
define linkonce_odr void @_ZNSt23mersenne_twister_engineImLm32ELm624ELm397ELm31ELm2567483615ELm11ELm4294967295ELm7ELm2636928640ELm15ELm4022730752ELm18ELm1812433253EEC2Em(ptr noundef nonnull align 8 dereferenceable(5000) %0, i64 noundef %1) unnamed_addr #0 comdat align 2 {
  %3 = alloca ptr, align 8
  %4 = alloca i64, align 8
  store ptr %0, ptr %3, align 8, !tbaa !92
  store i64 %1, ptr %4, align 8, !tbaa !51
  %5 = load ptr, ptr %3, align 8
  %6 = load i64, ptr %4, align 8, !tbaa !51
  call void @_ZNSt23mersenne_twister_engineImLm32ELm624ELm397ELm31ELm2567483615ELm11ELm4294967295ELm7ELm2636928640ELm15ELm4022730752ELm18ELm1812433253EE4seedEm(ptr noundef nonnull align 8 dereferenceable(5000) %5, i64 noundef %6)
  ret void
}

; Function Attrs: mustprogress uwtable
define ptr @llama_sampler_init_mirostat_v2(i32 noundef %0, float noundef %1, float noundef %2) #0 personality ptr @__gxx_personality_v0 {
  %4 = alloca i32, align 4
  %5 = alloca float, align 4
  %6 = alloca float, align 4
  %7 = alloca i32, align 4
  %8 = alloca ptr, align 8
  %9 = alloca i32, align 4
  store i32 %0, ptr %4, align 4, !tbaa !16
  store float %1, ptr %5, align 4, !tbaa !36
  store float %2, ptr %6, align 4, !tbaa !36
  call void @llvm.lifetime.start.p0(i64 4, ptr %7) #14
  %10 = load i32, ptr %4, align 4, !tbaa !16
  %11 = call noundef i32 @_ZL12get_rng_seedj(i32 noundef %10)
  store i32 %11, ptr %7, align 4, !tbaa !16
  %12 = call noalias noundef nonnull ptr @_Znwm(i64 noundef 5024) #19
  %13 = getelementptr inbounds nuw %struct.llama_sampler_mirostat_v2, ptr %12, i32 0, i32 0
  %14 = load i32, ptr %4, align 4, !tbaa !16
  store i32 %14, ptr %13, align 16, !tbaa !125
  %15 = getelementptr inbounds nuw %struct.llama_sampler_mirostat_v2, ptr %12, i32 0, i32 1
  %16 = load i32, ptr %7, align 4, !tbaa !16
  store i32 %16, ptr %15, align 4, !tbaa !127
  %17 = getelementptr inbounds nuw %struct.llama_sampler_mirostat_v2, ptr %12, i32 0, i32 2
  %18 = load float, ptr %5, align 4, !tbaa !36
  store float %18, ptr %17, align 8, !tbaa !128
  %19 = getelementptr inbounds nuw %struct.llama_sampler_mirostat_v2, ptr %12, i32 0, i32 3
  %20 = load float, ptr %6, align 4, !tbaa !36
  store float %20, ptr %19, align 4, !tbaa !129
  %21 = getelementptr inbounds nuw %struct.llama_sampler_mirostat_v2, ptr %12, i32 0, i32 4
  %22 = load float, ptr %5, align 4, !tbaa !36
  %23 = fmul float 2.000000e+00, %22
  store float %23, ptr %21, align 16, !tbaa !130
  %24 = getelementptr inbounds nuw %struct.llama_sampler_mirostat_v2, ptr %12, i32 0, i32 5
  %25 = load i32, ptr %7, align 4, !tbaa !16
  %26 = zext i32 %25 to i64
  invoke void @_ZNSt23mersenne_twister_engineImLm32ELm624ELm397ELm31ELm2567483615ELm11ELm4294967295ELm7ELm2636928640ELm15ELm4022730752ELm18ELm1812433253EEC2Em(ptr noundef nonnull align 8 dereferenceable(5000) %24, i64 noundef %26)
          to label %27 unwind label %29

27:                                               ; preds = %3
  %28 = call ptr @llama_sampler_init(ptr noundef @_ZL27llama_sampler_mirostat_v2_i, ptr noundef %12)
  call void @llvm.lifetime.end.p0(i64 4, ptr %7) #14
  ret ptr %28

29:                                               ; preds = %3
  %30 = landingpad { ptr, i32 }
          cleanup
  %31 = extractvalue { ptr, i32 } %30, 0
  store ptr %31, ptr %8, align 8
  %32 = extractvalue { ptr, i32 } %30, 1
  store i32 %32, ptr %9, align 4
  call void @_ZdlPvm(ptr noundef %12, i64 noundef 5024) #21
  call void @llvm.lifetime.end.p0(i64 4, ptr %7) #14
  br label %33

33:                                               ; preds = %29
  %34 = load ptr, ptr %8, align 8
  %35 = load i32, ptr %9, align 4
  %36 = insertvalue { ptr, i32 } poison, ptr %34, 0
  %37 = insertvalue { ptr, i32 } %36, i32 %35, 1
  resume { ptr, i32 } %37
}

; Function Attrs: mustprogress uwtable
define internal noundef ptr @_ZL31llama_sampler_mirostat_v2_clonePK13llama_sampler(ptr noundef %0) #0 {
  %2 = alloca ptr, align 8
  %3 = alloca ptr, align 8
  %4 = alloca ptr, align 8
  %5 = alloca ptr, align 8
  store ptr %0, ptr %2, align 8, !tbaa !12
  call void @llvm.lifetime.start.p0(i64 8, ptr %3) #14
  %6 = load ptr, ptr %2, align 8, !tbaa !12
  %7 = getelementptr inbounds nuw %struct.llama_sampler, ptr %6, i32 0, i32 1
  %8 = load ptr, ptr %7, align 8, !tbaa !11
  store ptr %8, ptr %3, align 8, !tbaa !558
  call void @llvm.lifetime.start.p0(i64 8, ptr %4) #14
  %9 = load ptr, ptr %3, align 8, !tbaa !558
  %10 = getelementptr inbounds nuw %struct.llama_sampler_mirostat_v2, ptr %9, i32 0, i32 0
  %11 = load i32, ptr %10, align 8, !tbaa !125
  %12 = load ptr, ptr %3, align 8, !tbaa !558
  %13 = getelementptr inbounds nuw %struct.llama_sampler_mirostat_v2, ptr %12, i32 0, i32 2
  %14 = load float, ptr %13, align 8, !tbaa !128
  %15 = load ptr, ptr %3, align 8, !tbaa !558
  %16 = getelementptr inbounds nuw %struct.llama_sampler_mirostat_v2, ptr %15, i32 0, i32 3
  %17 = load float, ptr %16, align 4, !tbaa !129
  %18 = call ptr @llama_sampler_init_mirostat_v2(i32 noundef %11, float noundef %14, float noundef %17)
  store ptr %18, ptr %4, align 8, !tbaa !12
  call void @llvm.lifetime.start.p0(i64 8, ptr %5) #14
  %19 = load ptr, ptr %4, align 8, !tbaa !12
  %20 = getelementptr inbounds nuw %struct.llama_sampler, ptr %19, i32 0, i32 1
  %21 = load ptr, ptr %20, align 8, !tbaa !11
  store ptr %21, ptr %5, align 8, !tbaa !558
  %22 = load ptr, ptr %3, align 8, !tbaa !558
  %23 = getelementptr inbounds nuw %struct.llama_sampler_mirostat_v2, ptr %22, i32 0, i32 4
  %24 = load float, ptr %23, align 8, !tbaa !130
  %25 = load ptr, ptr %5, align 8, !tbaa !558
  %26 = getelementptr inbounds nuw %struct.llama_sampler_mirostat_v2, ptr %25, i32 0, i32 4
  store float %24, ptr %26, align 8, !tbaa !130
  %27 = load ptr, ptr %3, align 8, !tbaa !558
  %28 = getelementptr inbounds nuw %struct.llama_sampler_mirostat_v2, ptr %27, i32 0, i32 5
  %29 = load ptr, ptr %5, align 8, !tbaa !558
  %30 = getelementptr inbounds nuw %struct.llama_sampler_mirostat_v2, ptr %29, i32 0, i32 5
  call void @llvm.memcpy.p0.p0.i64(ptr align 8 %30, ptr align 8 %28, i64 5000, i1 false), !tbaa.struct !282
  call void @llvm.lifetime.end.p0(i64 8, ptr %5) #14
  %31 = load ptr, ptr %4, align 8, !tbaa !12
  call void @llvm.lifetime.end.p0(i64 8, ptr %4) #14
  call void @llvm.lifetime.end.p0(i64 8, ptr %3) #14
  ret ptr %31
}