; Function Attrs: mustprogress uwtable
define internal noalias noundef nonnull ptr @_ZL31llama_sampler_mirostat_v2_clonePK13llama_sampler(ptr noundef readonly captures(none) %0) #0 personality ptr @__gxx_personality_v0 {
  %2 = getelementptr inbounds nuw i8, ptr %0, i64 8
  %3 = load ptr, ptr %2, align 8, !tbaa !9
  %4 = load i32, ptr %3, align 8, !tbaa !90
  %5 = getelementptr inbounds nuw i8, ptr %3, i64 8
  %6 = load float, ptr %5, align 8, !tbaa !93
  %7 = getelementptr inbounds nuw i8, ptr %3, i64 12
  %8 = load float, ptr %7, align 4, !tbaa !94
  %9 = tail call fastcc noundef i32 @_ZL12get_rng_seedj(i32 noundef %4)
  %10 = tail call noalias noundef nonnull dereferenceable(5024) ptr @_Znwm(i64 noundef 5024) #30
  store i32 %4, ptr %10, align 16, !tbaa !90
  %11 = getelementptr inbounds nuw i8, ptr %10, i64 4
  store i32 %9, ptr %11, align 4, !tbaa !92
  %12 = getelementptr inbounds nuw i8, ptr %10, i64 8
  store float %6, ptr %12, align 8, !tbaa !93
  %13 = getelementptr inbounds nuw i8, ptr %10, i64 12
  store float %8, ptr %13, align 4, !tbaa !94
  %14 = getelementptr inbounds nuw i8, ptr %10, i64 16
  %15 = fmul float %6, 2.000000e+00
  store float %15, ptr %14, align 16, !tbaa !95
  %16 = getelementptr inbounds nuw i8, ptr %10, i64 24
  %17 = zext i32 %9 to i64
  store i64 %17, ptr %16, align 8, !tbaa !46
  br label %18

18:                                               ; preds = %18, %1
  %19 = phi i64 [ %17, %1 ], [ %24, %18 ]
  %.011.i.i.i = phi i64 [ 1, %1 ], [ %26, %18 ]
  %20 = lshr i64 %19, 30
  %21 = xor i64 %20, %19
  %22 = mul nuw nsw i64 %21, 1812433253
  %23 = add nuw i64 %22, %.011.i.i.i
  %24 = and i64 %23, 4294967295
  %25 = getelementptr inbounds nuw [624 x i64], ptr %16, i64 0, i64 %.011.i.i.i
  store i64 %24, ptr %25, align 8, !tbaa !46
  %26 = add nuw nsw i64 %.011.i.i.i, 1
  %exitcond.not.i.i.i = icmp eq i64 %26, 624
  br i1 %exitcond.not.i.i.i, label %llama_sampler_init_mirostat_v2.exit, label %18, !llvm.loop !47

llama_sampler_init_mirostat_v2.exit:              ; preds = %18
  %27 = getelementptr inbounds nuw i8, ptr %10, i64 5016
  store i64 624, ptr %27, align 8, !tbaa !48
  %28 = tail call noalias noundef nonnull dereferenceable(16) ptr @_Znwm(i64 noundef 16) #30
  store ptr @_ZL27llama_sampler_mirostat_v2_i, ptr %28, align 16, !tbaa !3
  %29 = getelementptr inbounds nuw i8, ptr %28, i64 8
  store ptr %10, ptr %29, align 8, !tbaa !9
  %30 = getelementptr inbounds nuw i8, ptr %3, i64 16
  %31 = load float, ptr %30, align 8, !tbaa !95
  store float %31, ptr %14, align 8, !tbaa !95
  %32 = getelementptr inbounds nuw i8, ptr %3, i64 24
  tail call void @llvm.memcpy.p0.p0.i64(ptr noundef nonnull align 8 dereferenceable(5000) %16, ptr noundef nonnull align 8 dereferenceable(5000) %32, i64 5000, i1 false), !tbaa.struct !211
  ret ptr %28
}